target datalayout = "e-m:e-p270:32:32-p271:32:32-p272:64:64-i64:64-i128:128-f80:128-n8:16:32:64-S128"
target triple = "x86_64-unknown-linux-gnu"

%class.b2EdgeShape = type <{ %class.b2Shape, %struct.b2Vec2, %struct.b2Vec2, %struct.b2Vec2, %struct.b2Vec2, i8, [7 x i8] }>
%class.b2Shape = type { ptr, i32, float }
%struct.b2Vec2 = type { float, float }

; Function Attrs: mustprogress nounwind uwtable
define void @_ZN11b2EdgeShape11SetOneSidedERK6b2Vec2S2_S2_S2_(ptr noundef nonnull align 8 dereferenceable(49) %this, ptr noundef nonnull align 4 dereferenceable(8) %v0, ptr noundef nonnull align 4 dereferenceable(8) %v1, ptr noundef nonnull align 4 dereferenceable(8) %v2, ptr noundef nonnull align 4 dereferenceable(8) %v3) #0 align 2 {
entry:
  %this.addr = alloca ptr, align 8
  %v0.addr = alloca ptr, align 8
  %v1.addr = alloca ptr, align 8
  %v2.addr = alloca ptr, align 8
  %v3.addr = alloca ptr, align 8
  store ptr %this, ptr %this.addr, align 8
  store ptr %v0, ptr %v0.addr, align 8
  store ptr %v1, ptr %v1.addr, align 8
  store ptr %v2, ptr %v2.addr, align 8
  store ptr %v3, ptr %v3.addr, align 8
  %this1 = load ptr, ptr %this.addr, align 8
  %0 = load ptr, ptr %v0.addr, align 8
  %m_vertex0 = getelementptr inbounds %class.b2EdgeShape, ptr %this1, i32 0, i32 3
  call void @llvm.memcpy.p0.p0.i64(ptr align 8 %m_vertex0, ptr align 4 %0, i64 8, i1 false)
  %1 = load ptr, ptr %v1.addr, align 8
  %m_vertex1 = getelementptr inbounds %class.b2EdgeShape, ptr %this1, i32 0, i32 1
  call void @llvm.memcpy.p0.p0.i64(ptr align 8 %m_vertex1, ptr align 4 %1, i64 8, i1 false)
  %2 = load ptr, ptr %v2.addr, align 8
  %m_vertex2 = getelementptr inbounds %class.b2EdgeShape, ptr %this1, i32 0, i32 2
  call void @llvm.memcpy.p0.p0.i64(ptr align 8 %m_vertex2, ptr align 4 %2, i64 8, i1 false)
  %3 = load ptr, ptr %v3.addr, align 8
  %m_vertex3 = getelementptr inbounds %class.b2EdgeShape, ptr %this1, i32 0, i32 4
  call void @llvm.memcpy.p0.p0.i64(ptr align 8 %m_vertex3, ptr align 4 %3, i64 8, i1 false)
  %m_oneSided = getelementptr inbounds %class.b2EdgeShape, ptr %this1, i32 0, i32 5
  store i8 1, ptr %m_oneSided, align 8
  ret void
}