; Function Attrs: mustprogress nofree norecurse nosync nounwind willreturn memory(argmem: readwrite) uwtable
define void @_ZN11b2EdgeShape11SetOneSidedERK6b2Vec2S2_S2_S2_(ptr nocapture noundef nonnull writeonly align 8 dereferenceable(49) %this, ptr nocapture noundef nonnull readonly align 4 dereferenceable(8) %v0, ptr nocapture noundef nonnull readonly align 4 dereferenceable(8) %v1, ptr nocapture noundef nonnull readonly align 4 dereferenceable(8) %v2, ptr nocapture noundef nonnull readonly align 4 dereferenceable(8) %v3) local_unnamed_addr #0 align 2 {
entry:
  %m_vertex0 = getelementptr inbounds i8, ptr %this, i64 32
  %0 = load i64, ptr %v0, align 4
  store i64 %0, ptr %m_vertex0, align 8
  %m_vertex1 = getelementptr inbounds i8, ptr %this, i64 16
  %1 = load i64, ptr %v1, align 4
  store i64 %1, ptr %m_vertex1, align 8
  %m_vertex2 = getelementptr inbounds i8, ptr %this, i64 24
  %2 = load i64, ptr %v2, align 4
  store i64 %2, ptr %m_vertex2, align 8
  %m_vertex3 = getelementptr inbounds i8, ptr %this, i64 40
  %3 = load i64, ptr %v3, align 4
  store i64 %3, ptr %m_vertex3, align 8
  %m_oneSided = getelementptr inbounds i8, ptr %this, i64 48
  store i8 1, ptr %m_oneSided, align 8
  ret void
}